(dp0
S'hju'
p1
(dp2
S'score'
p3
F0.75
sS'vowel'
p4
S'u'
p5
ssS'gu'
p6
(dp7
g3
F1.3333333333333335
sg4
g5
ssS'shkea'
p8
(dp9
g3
F0.75
sg4
S'ea'
p10
ssS'shou'
p11
(dp12
g3
F1.3333333333333335
sg4
S'ou'
p13
ssS'o'
p14
(dp15
g3
F0.75
sg4
g14
ssS'yea'
p16
(dp17
g3
F1.3333333333333335
sg4
g10
ssS'zhje'
p18
(dp19
g3
F0.75
sg4
S'e'
p20
ssS'kwoa'
p21
(dp22
g3
F0.75
sg4
S'oa'
p23
ssS'hja'
p24
(dp25
g3
F0.75
sg4
S'a'
p26
ssS'hje'
p27
(dp28
g3
F0.75
sg4
g20
ssS'shoa'
p29
(dp30
g3
F1.3333333333333335
sg4
g23
ssS'oabb'
p31
(dp32
g3
F0.75
sg4
g23
ssS'hyea'
p33
(dp34
g3
F0.75
sg4
g10
ssS'qujou'
p35
(dp36
g3
F0.75
sg4
g13
ssS'quea'
p37
(dp38
g3
F1.3333333333333335
sg4
g10
ssS'kquou'
p39
(dp40
g3
F0.75
sg4
g13
ssS'yoak'
p41
(dp42
g3
F0.91666666666666674
sg4
g23
ssS'yoaj'
p43
(dp44
g3
F0.91666666666666674
sg4
g23
ssS'yoah'
p45
(dp46
g3
F0.91666666666666674
sg4
g23
ssS'woakk'
p47
(dp48
g3
F0.33333333333333337
sg4
g23
ssS'shgu'
p49
(dp50
g3
F0.75
sg4
g5
ssS'jvu'
p51
(dp52
g3
F0.75
sg4
g5
ssS'koaj'
p53
(dp54
g3
F0.91666666666666674
sg4
g23
ssS'jpea'
p55
(dp56
g3
F0.75
sg4
g10
ssS'yoap'
p57
(dp58
g3
F0.91666666666666674
sg4
g23
ssS'yoav'
p59
(dp60
g3
F0.91666666666666674
sg4
g23
ssS'vea'
p61
(dp62
g3
F1.3333333333333335
sg4
g10
ssS'woazh'
p63
(dp64
g3
F0.91666666666666674
sg4
g23
ssS'toazhg'
p65
(dp66
g3
F0.33333333333333337
sg4
g23
ssS'poal'
p67
(dp68
g3
F0.91666666666666674
sg4
g23
ssS'kje'
p69
(dp70
g3
F0.75
sg4
g20
ssS'vlo'
p71
(dp72
g3
F0.75
sg4
g14
ssS'shwa'
p73
(dp74
g3
F0.75
sg4
g26
ssS'wje'
p75
(dp76
g3
F0.75
sg4
g20
ssS'kko'
p77
(dp78
g3
F0.75
sg4
g14
ssS'ywoa'
p79
(dp80
g3
F0.75
sg4
g23
ssS'wju'
p81
(dp82
g3
F0.75
sg4
g5
ssS'yu'
p83
(dp84
g3
F1.3333333333333335
sg4
g5
ssS'psu'
p85
(dp86
g3
F0.75
sg4
g5
ssS'hya'
p87
(dp88
g3
F0.75
sg4
g26
ssS'ywu'
p89
(dp90
g3
F0.75
sg4
g5
ssS'jyu'
p91
(dp92
g3
F0.75
sg4
g5
ssS'sha'
p93
(dp94
g3
F1.3333333333333335
sg4
g26
ssS'oahy'
p95
(dp96
g3
F0.75
sg4
g23
ssS'hzhu'
p97
(dp98
g3
F0.75
sg4
g5
ssS'yquoa'
p99
(dp100
g3
F0.75
sg4
g23
ssS'joav'
p101
(dp102
g3
F0.91666666666666674
sg4
g23
ssS'shea'
p103
(dp104
g3
F1.3333333333333335
sg4
g10
ssS'hvea'
p105
(dp106
g3
F0.75
sg4
g10
ssS'zhha'
p107
(dp108
g3
F0.75
sg4
g26
ssS'shjea'
p109
(dp110
g3
F0.75
sg4
g10
ssS'year'
p111
(dp112
g3
F0.91666666666666674
sg4
g10
ssS'joah'
p113
(dp114
g3
F0.91666666666666674
sg4
g23
ssS'hjea'
p115
(dp116
g3
F0.75
sg4
g10
ssS'yhea'
p117
(dp118
g3
F0.75
sg4
g10
ssS'yka'
p119
(dp120
g3
F0.75
sg4
g26
ssS'wou'
p121
(dp122
g3
F1.3333333333333335
sg4
g13
ssS'wgu'
p123
(dp124
g3
F0.75
sg4
g5
ssS'yku'
p125
(dp126
g3
F0.75
sg4
g5
ssS'joazh'
p127
(dp128
g3
F0.91666666666666674
sg4
g23
ssS'gou'
p129
(dp130
g3
F1.3333333333333335
sg4
g13
ssS'kbu'
p131
(dp132
g3
F0.75
sg4
g5
ssS'woa'
p133
(dp134
g3
F1.3333333333333335
sg4
g23
ssS'wjea'
p135
(dp136
g3
F0.75
sg4
g10
ssS'ksu'
p137
(dp138
g3
F0.75
sg4
g5
ssS'we'
p139
(dp140
g3
F1.3333333333333335
sg4
g20
ssS'quu'
p141
(dp142
g3
F1.3333333333333335
sg4
g5
ssS'jou'
p143
(dp144
g3
F1.3333333333333335
sg4
g13
ssS'wa'
p145
(dp146
g3
F1.3333333333333335
sg4
g26
ssS'ju'
p147
(dp148
g3
F1.3333333333333335
sg4
g5
ssS'quoaj'
p149
(dp150
g3
F0.91666666666666674
sg4
g23
ssS'kea'
p151
(dp152
g3
F1.3333333333333335
sg4
g10
ssS'quoah'
p153
(dp154
g3
F0.91666666666666674
sg4
g23
ssS'joa'
p155
(dp156
g3
F1.3333333333333335
sg4
g23
ssS'wu'
p157
(dp158
g3
F1.3333333333333335
sg4
g5
ssS'wyoa'
p159
(dp160
g3
F0.75
sg4
g23
ssS'koahk'
p161
(dp162
g3
F0.33333333333333337
sg4
g23
ssS'ypea'
p163
(dp164
g3
F0.75
sg4
g10
ssS'je'
p165
(dp166
g3
F1.3333333333333335
sg4
g20
ssS'ja'
p167
(dp168
g3
F1.3333333333333335
sg4
g26
ssS'shquoa'
p169
(dp170
g3
F0.75
sg4
g23
ssS'quoazh'
p171
(dp172
g3
F0.91666666666666674
sg4
g23
ssS'bu'
p173
(dp174
g3
F1.3333333333333335
sg4
g5
ssS'quje'
p175
(dp176
g3
F0.75
sg4
g20
ssS'woajk'
p177
(dp178
g3
F0.33333333333333337
sg4
g23
ssS'hhou'
p179
(dp180
g3
F0.75
sg4
g13
ssg23
(dp181
g3
F0.75
sg4
g23
ssS'hbu'
p182
(dp183
g3
F0.75
sg4
g5
ssS'quju'
p184
(dp185
g3
F0.75
sg4
g5
ssS'hjou'
p186
(dp187
g3
F0.75
sg4
g13
ssS'jwe'
p188
(dp189
g3
F0.75
sg4
g20
ssS'hsha'
p190
(dp191
g3
F0.75
sg4
g26
ssS'yyu'
p192
(dp193
g3
F0.75
sg4
g5
ssS'hoah'
p194
(dp195
g3
F0.91666666666666674
sg4
g23
ssS'pou'
p196
(dp197
g3
F1.3333333333333335
sg4
g13
ssS'jje'
p198
(dp199
g3
F0.75
sg4
g20
ssS'kvea'
p200
(dp201
g3
F0.75
sg4
g10
ssS'koa'
p202
(dp203
g3
F1.3333333333333335
sg4
g23
ssS'jea'
p204
(dp205
g3
F1.3333333333333335
sg4
g10
ssS'hea'
p206
(dp207
g3
F1.3333333333333335
sg4
g10
ssS'wjou'
p208
(dp209
g3
F0.75
sg4
g13
ssg26
(dp210
g3
F0.75
sg4
g26
ssS'jyoa'
p211
(dp212
g3
F0.75
sg4
g23
ssS'kgu'
p213
(dp214
g3
F0.75
sg4
g5
ssS'jsha'
p215
(dp216
g3
F0.75
sg4
g26
ssS'ykea'
p217
(dp218
g3
F0.75
sg4
g10
ssS'hu'
p219
(dp220
g3
F1.3333333333333335
sg4
g5
ssS'ha'
p221
(dp222
g3
F1.3333333333333335
sg4
g26
ssS'wve'
p223
(dp224
g3
F0.75
sg4
g20
ssS'yja'
p225
(dp226
g3
F0.75
sg4
g26
ssS'yje'
p227
(dp228
g3
F0.75
sg4
g20
ssS'klo'
p229
(dp230
g3
F0.75
sg4
g14
ssS'jvea'
p231
(dp232
g3
F0.75
sg4
g10
ssS'wvea'
p233
(dp234
g3
F0.75
sg4
g10
ssS'yzhea'
p235
(dp236
g3
F0.75
sg4
g10
ssS'woal'
p237
(dp238
g3
F0.91666666666666674
sg4
g23
ssS'woay'
p239
(dp240
g3
F0.91666666666666674
sg4
g23
ssS'va'
p241
(dp242
g3
F1.3333333333333335
sg4
g26
ssS'hoal'
p243
(dp244
g3
F0.91666666666666674
sg4
g23
ssS'woar'
p245
(dp246
g3
F0.91666666666666674
sg4
g23
ssS'woaw'
p247
(dp248
g3
F0.91666666666666674
sg4
g23
ssS'woav'
p249
(dp250
g3
F0.91666666666666674
sg4
g23
ssS'woah'
p251
(dp252
g3
F0.91666666666666674
sg4
g23
ssS'woak'
p253
(dp254
g3
F0.91666666666666674
sg4
g23
ssS'woaj'
p255
(dp256
g3
F0.91666666666666674
sg4
g23
ssS'woapv'
p257
(dp258
g3
F0.33333333333333337
sg4
g23
ssS'vu'
p259
(dp260
g3
F1.3333333333333335
sg4
g5
ssS'hkoaz'
p261
(dp262
g3
F0.33333333333333337
sg4
g23
ssS'yoazh'
p263
(dp264
g3
F0.91666666666666674
sg4
g23
ssS'yyea'
p265
(dp266
g3
F0.75
sg4
g10
ssS'kyu'
p267
(dp268
g3
F0.75
sg4
g5
ssS'quou'
p269
(dp270
g3
F1.3333333333333335
sg4
g13
ssS'hoa'
p271
(dp272
g3
F1.3333333333333335
sg4
g23
ssS'hgu'
p273
(dp274
g3
F0.75
sg4
g5
ssS'hshou'
p275
(dp276
g3
F0.75
sg4
g13
ssS'yoa'
p277
(dp278
g3
F1.3333333333333335
sg4
g23
ssS'quoa'
p279
(dp280
g3
F1.3333333333333335
sg4
g23
ssS'hou'
p281
(dp282
g3
F1.3333333333333335
sg4
g13
ssS'jwoa'
p283
(dp284
g3
F0.75
sg4
g23
ssS'you'
p285
(dp286
g3
F1.3333333333333335
sg4
g13
ssS'wquoa'
p287
(dp288
g3
F0.75
sg4
g23
ssS'wkoaqu'
p289
(dp290
g3
F0.33333333333333337
sg4
g23
ssS'pshoazh'
p291
(dp292
g3
F0.33333333333333337
sg4
g23
ssS'jsu'
p293
(dp294
g3
F0.75
sg4
g5
ssS'shju'
p295
(dp296
g3
F0.75
sg4
g5
ssS'pvea'
p297
(dp298
g3
F0.75
sg4
g10
ssS'ka'
p299
(dp300
g3
F1.3333333333333335
sg4
g26
ssg20
(dp301
g3
F0.75
sg4
g20
ssS'vear'
p302
(dp303
g3
F0.91666666666666674
sg4
g10
ssS'yyoa'
p304
(dp305
g3
F0.75
sg4
g23
ssg5
(dp306
g3
F0.75
sg4
g5
ssS'wya'
p307
(dp308
g3
F0.75
sg4
g26
ssS'whu'
p309
(dp310
g3
F0.75
sg4
g5
ssS'yhu'
p311
(dp312
g3
F0.75
sg4
g5
ss.